target datalayout = "e-m:e-p270:32:32-p271:32:32-p272:64:64-i64:64-i128:128-f80:128-n8:16:32:64-S128"
target triple = "x86_64-pc-linux-gnu"

@.str.2 = private unnamed_addr constant [1 x i8] zeroinitializer, align 1
@.str.73 = private unnamed_addr constant [3 x i8] c"  \00", align 1
@.str.90 = private unnamed_addr constant [4 x i8] c" --\00", align 1
@.str.91 = private unnamed_addr constant [12 x i8] c"pkg-config~\00", align 1
@.str.92 = private unnamed_addr constant [2 x i8] c"~\00", align 1
@.str.93 = private unnamed_addr constant [19 x i8] c"\0A%sconfiguration:\0A\00", align 1
@.str.94 = private unnamed_addr constant [8 x i8] c"%s%s%s\0A\00", align 1

; Function Attrs: nounwind uwtable
define internal void @print_buildconf(i32 noundef %0, i32 noundef %1) #0 {
  %3 = alloca i32, align 4
  %4 = alloca i32, align 4
  %5 = alloca ptr, align 8
  %6 = alloca [496 x i8], align 16
  %7 = alloca ptr, align 8
  %8 = alloca ptr, align 8
  %9 = alloca ptr, align 8
  store i32 %0, ptr %3, align 4, !tbaa !10
  store i32 %1, ptr %4, align 4, !tbaa !10
  call void @llvm.lifetime.start.p0(i64 8, ptr %5) #11
  %10 = load i32, ptr %3, align 4, !tbaa !10
  %11 = and i32 %10, 1
  %12 = icmp ne i32 %11, 0
  %13 = select i1 %12, ptr @.str.73, ptr @.str.2
  store ptr %13, ptr %5, align 8, !tbaa !8
  call void @llvm.lifetime.start.p0(i64 496, ptr %6) #11
  call void @llvm.memcpy.p0.p0.i64(ptr align 16 %6, ptr align 16 @__const.print_buildconf.str, i64 496, i1 false)
  call void @llvm.lifetime.start.p0(i64 8, ptr %7) #11
  call void @llvm.lifetime.start.p0(i64 8, ptr %8) #11
  call void @llvm.lifetime.start.p0(i64 8, ptr %9) #11
  br label %14

14:                                               ; preds = %18, %2
  %15 = getelementptr inbounds [496 x i8], ptr %6, i64 0, i64 0
  %16 = call ptr @strstr(ptr noundef %15, ptr noundef @.str.90) #12
  store ptr %16, ptr %7, align 8, !tbaa !8
  %17 = icmp ne ptr %16, null
  br i1 %17, label %18, label %21

18:                                               ; preds = %14
  %19 = load ptr, ptr %7, align 8, !tbaa !8
  %20 = getelementptr inbounds i8, ptr %19, i64 0
  store i8 126, ptr %20, align 1, !tbaa !17
  br label %14, !llvm.loop !18

21:                                               ; preds = %14
  br label %22

22:                                               ; preds = %26, %21
  %23 = getelementptr inbounds [496 x i8], ptr %6, i64 0, i64 0
  %24 = call ptr @strstr(ptr noundef %23, ptr noundef @.str.91) #12
  store ptr %24, ptr %8, align 8, !tbaa !8
  %25 = icmp ne ptr %24, null
  br i1 %25, label %26, label %29

26:                                               ; preds = %22
  %27 = load ptr, ptr %8, align 8, !tbaa !8
  %28 = getelementptr inbounds nuw i8, ptr %27, i64 10
  store i8 32, ptr %28, align 1, !tbaa !17
  br label %22, !llvm.loop !20

29:                                               ; preds = %22
  %30 = getelementptr inbounds [496 x i8], ptr %6, i64 0, i64 0
  %31 = call ptr @strtok(ptr noundef %30, ptr noundef @.str.92) #11
  store ptr %31, ptr %9, align 8, !tbaa !8
  %32 = load i32, ptr %4, align 4, !tbaa !10
  %33 = load ptr, ptr %5, align 8, !tbaa !8
  call void (ptr, i32, ptr, ...) @av_log(ptr noundef null, i32 noundef %32, ptr noundef @.str.93, ptr noundef %33)
  br label %34

34:                                               ; preds = %37, %29
  %35 = load ptr, ptr %9, align 8, !tbaa !8
  %36 = icmp ne ptr %35, null
  br i1 %36, label %37, label %43

37:                                               ; preds = %34
  %38 = load i32, ptr %4, align 4, !tbaa !10
  %39 = load ptr, ptr %5, align 8, !tbaa !8
  %40 = load ptr, ptr %5, align 8, !tbaa !8
  %41 = load ptr, ptr %9, align 8, !tbaa !8
  call void (ptr, i32, ptr, ...) @av_log(ptr noundef null, i32 noundef %38, ptr noundef @.str.94, ptr noundef %39, ptr noundef %40, ptr noundef %41)
  %42 = call ptr @strtok(ptr noundef null, ptr noundef @.str.92) #11
  store ptr %42, ptr %9, align 8, !tbaa !8
  br label %34, !llvm.loop !21

43:                                               ; preds = %34
  call void @llvm.lifetime.end.p0(i64 8, ptr %9) #11
  call void @llvm.lifetime.end.p0(i64 8, ptr %8) #11
  call void @llvm.lifetime.end.p0(i64 8, ptr %7) #11
  call void @llvm.lifetime.end.p0(i64 496, ptr %6) #11
  call void @llvm.lifetime.end.p0(i64 8, ptr %5) #11
  ret void
}

; Function Attrs: nounwind uwtable
define i32 @show_buildconf(ptr noundef %0, ptr noundef %1, ptr noundef %2) #0 {
  %4 = alloca ptr, align 8
  %5 = alloca ptr, align 8
  %6 = alloca ptr, align 8
  store ptr %0, ptr %4, align 8, !tbaa !4
  store ptr %1, ptr %5, align 8, !tbaa !8
  store ptr %2, ptr %6, align 8, !tbaa !8
  call void @av_log_set_callback(ptr noundef @log_callback_help)
  call void @print_buildconf(i32 noundef 1, i32 noundef 32)
  ret i32 0
}