; Function Attrs: nounwind uwtable
define noundef i32 @show_buildconf(ptr noundef readnone captures(none) %0, ptr noundef readnone captures(none) %1, ptr noundef readnone captures(none) %2) local_unnamed_addr #2 {
  %4 = alloca [496 x i8], align 16
  tail call void @av_log_set_callback(ptr noundef nonnull @log_callback_help) #17
  call void @llvm.lifetime.start.p0(i64 496, ptr nonnull %4) #17
  call void @llvm.memcpy.p0.p0.i64(ptr noundef nonnull align 16 dereferenceable(496) %4, ptr noundef nonnull align 16 dereferenceable(496) @__const.print_buildconf.str, i64 496, i1 false)
  %5 = call ptr @strstr(ptr noundef nonnull dereferenceable(1) %4, ptr noundef nonnull dereferenceable(1) @.str.90) #18
  %.not13.i = icmp eq ptr %5, null
  br i1 %.not13.i, label %.preheader.i, label %.lr.ph.i

.preheader.i:                                     ; preds = %.lr.ph.i, %3
  %6 = call ptr @strstr(ptr noundef nonnull dereferenceable(1) %4, ptr noundef nonnull dereferenceable(1) @.str.91) #18
  %.not1114.i = icmp eq ptr %6, null
  br i1 %.not1114.i, label %._crit_edge.i, label %.lr.ph15.i

.lr.ph.i:                                         ; preds = %3, %.lr.ph.i
  %7 = phi ptr [ %8, %.lr.ph.i ], [ %5, %3 ]
  store i8 126, ptr %7, align 1, !tbaa !8
  %8 = call ptr @strstr(ptr noundef nonnull dereferenceable(1) %4, ptr noundef nonnull dereferenceable(1) @.str.90) #18
  %.not.i = icmp eq ptr %8, null
  br i1 %.not.i, label %.preheader.i, label %.lr.ph.i, !llvm.loop !9

.lr.ph15.i:                                       ; preds = %.preheader.i, %.lr.ph15.i
  %9 = phi ptr [ %11, %.lr.ph15.i ], [ %6, %.preheader.i ]
  %10 = getelementptr inbounds nuw i8, ptr %9, i64 10
  store i8 32, ptr %10, align 1, !tbaa !8
  %11 = call ptr @strstr(ptr noundef nonnull dereferenceable(1) %4, ptr noundef nonnull dereferenceable(1) @.str.91) #18
  %.not11.i = icmp eq ptr %11, null
  br i1 %.not11.i, label %._crit_edge.i, label %.lr.ph15.i, !llvm.loop !11

._crit_edge.i:                                    ; preds = %.lr.ph15.i, %.preheader.i
  %12 = call ptr @strtok(ptr noundef nonnull %4, ptr noundef nonnull @.str.92) #17
  call void (ptr, i32, ptr, ...) @av_log(ptr noundef null, i32 noundef 32, ptr noundef nonnull @.str.93, ptr noundef nonnull @.str.73) #17
  %.not1216.i = icmp eq ptr %12, null
  br i1 %.not1216.i, label %print_buildconf.exit, label %.lr.ph19.i

.lr.ph19.i:                                       ; preds = %._crit_edge.i, %.lr.ph19.i
  %.017.i = phi ptr [ %13, %.lr.ph19.i ], [ %12, %._crit_edge.i ]
  call void (ptr, i32, ptr, ...) @av_log(ptr noundef null, i32 noundef 32, ptr noundef nonnull @.str.94, ptr noundef nonnull @.str.73, ptr noundef nonnull @.str.73, ptr noundef nonnull %.017.i) #17
  %13 = call ptr @strtok(ptr noundef null, ptr noundef nonnull @.str.92) #17
  %.not12.i = icmp eq ptr %13, null
  br i1 %.not12.i, label %print_buildconf.exit, label %.lr.ph19.i, !llvm.loop !12

print_buildconf.exit:                             ; preds = %.lr.ph19.i, %._crit_edge.i
  call void @llvm.lifetime.end.p0(i64 496, ptr nonnull %4) #17
  ret i32 0
}